target datalayout = "e-m:e-p270:32:32-p271:32:32-p272:64:64-i64:64-i128:128-f80:128-n8:16:32:64-S128"
target triple = "x86_64-pc-linux-gnu"

%union.pthread_mutex_t = type { %struct.__pthread_mutex_s }
%struct.__pthread_mutex_s = type { i32, i32, i32, i32, i32, i16, i16, %struct.__pthread_internal_list }
%struct.__pthread_internal_list = type { ptr, ptr }
%struct.slurm_acct_gather_energy_ops = type { ptr, ptr, ptr, ptr, ptr, ptr }

@g_context_lock = internal global %union.pthread_mutex_t zeroinitializer, align 8
@.str.1 = private unnamed_addr constant [29 x i8] c"%s: pthread_mutex_lock(): %m\00", align 1
@g_context_num = internal global i32 -1, align 4
@ops = internal global ptr null, align 8
@g_context = internal global ptr null, align 8
@.str.7 = private unnamed_addr constant [31 x i8] c"%s: pthread_mutex_unlock(): %m\00", align 1
@__func__.acct_gather_energy_g_conf_options = private unnamed_addr constant [34 x i8] c"acct_gather_energy_g_conf_options\00", align 1

; Function Attrs: nounwind uwtable
define dso_local i32 @acct_gather_energy_g_conf_options(ptr noundef %0, ptr noundef %1) #0 {
  %3 = alloca i32, align 4
  %4 = alloca ptr, align 8
  %5 = alloca ptr, align 8
  %6 = alloca i32, align 4
  %7 = alloca i32, align 4
  %8 = alloca i32, align 4
  store ptr %0, ptr %4, align 8
  store ptr %1, ptr %5, align 8
  %9 = load i32, ptr @g_context_num, align 4
  %10 = icmp ne i32 %9, 0
  br i1 %10, label %12, label %11

11:                                               ; preds = %2
  store i32 0, ptr %3, align 4
  br label %57

12:                                               ; preds = %2
  br label %13

13:                                               ; preds = %12
  call void @llvm.lifetime.start.p0(i64 4, ptr %6) #7
  %14 = call i32 @pthread_mutex_lock(ptr noundef @g_context_lock) #7
  store i32 %14, ptr %6, align 4
  %15 = load i32, ptr %6, align 4
  %16 = icmp ne i32 %15, 0
  br i1 %16, label %17, label %20

17:                                               ; preds = %13
  %18 = load i32, ptr %6, align 4
  %19 = call ptr @__errno_location() #8
  store i32 %18, ptr %19, align 4
  call void (ptr, ...) @fatal_abort(ptr noundef @.str.1, ptr noundef @__func__.acct_gather_energy_g_conf_options) #9
  unreachable

20:                                               ; preds = %13
  call void @llvm.lifetime.end.p0(i64 4, ptr %6) #7
  br label %21

21:                                               ; preds = %20
  call void @llvm.lifetime.start.p0(i64 4, ptr %7) #7
  store i32 0, ptr %7, align 4
  br label %22

22:                                               ; preds = %44, %21
  %23 = load i32, ptr %7, align 4
  %24 = load i32, ptr @g_context_num, align 4
  %25 = icmp slt i32 %23, %24
  br i1 %25, label %27, label %26

26:                                               ; preds = %22
  call void @llvm.lifetime.end.p0(i64 4, ptr %7) #7
  br label %47

27:                                               ; preds = %22
  %28 = load ptr, ptr @g_context, align 8
  %29 = load i32, ptr %7, align 4
  %30 = sext i32 %29 to i64
  %31 = getelementptr inbounds ptr, ptr %28, i64 %30
  %32 = load ptr, ptr %31, align 8
  %33 = icmp ne ptr %32, null
  br i1 %33, label %35, label %34

34:                                               ; preds = %27
  br label %44

35:                                               ; preds = %27
  %36 = load ptr, ptr @ops, align 8
  %37 = load i32, ptr %7, align 4
  %38 = sext i32 %37 to i64
  %39 = getelementptr inbounds %struct.slurm_acct_gather_energy_ops, ptr %36, i64 %38
  %40 = getelementptr inbounds nuw %struct.slurm_acct_gather_energy_ops, ptr %39, i32 0, i32 3
  %41 = load ptr, ptr %40, align 8
  %42 = load ptr, ptr %4, align 8
  %43 = load ptr, ptr %5, align 8
  call void %41(ptr noundef %42, ptr noundef %43)
  br label %44

44:                                               ; preds = %35, %34
  %45 = load i32, ptr %7, align 4
  %46 = add nsw i32 %45, 1
  store i32 %46, ptr %7, align 4
  br label %22, !llvm.loop !19

47:                                               ; preds = %26
  br label %48

48:                                               ; preds = %47
  call void @llvm.lifetime.start.p0(i64 4, ptr %8) #7
  %49 = call i32 @pthread_mutex_unlock(ptr noundef @g_context_lock) #7
  store i32 %49, ptr %8, align 4
  %50 = load i32, ptr %8, align 4
  %51 = icmp ne i32 %50, 0
  br i1 %51, label %52, label %55

52:                                               ; preds = %48
  %53 = load i32, ptr %8, align 4
  %54 = call ptr @__errno_location() #8
  store i32 %53, ptr %54, align 4
  call void (ptr, ...) @fatal_abort(ptr noundef @.str.7, ptr noundef @__func__.acct_gather_energy_g_conf_options) #9
  unreachable

55:                                               ; preds = %48
  call void @llvm.lifetime.end.p0(i64 4, ptr %8) #7
  br label %56

56:                                               ; preds = %55
  store i32 0, ptr %3, align 4
  br label %57

57:                                               ; preds = %56, %11
  %58 = load i32, ptr %3, align 4
  ret i32 %58
}