; Function Attrs: nounwind uwtable
define dso_local noundef i32 @acct_gather_energy_g_conf_options(ptr noundef %0, ptr noundef %1) local_unnamed_addr #0 {
  %3 = load i32, ptr @g_context_num, align 4
  %.not = icmp eq i32 %3, 0
  br i1 %.not, label %26, label %4

4:                                                ; preds = %2
  %5 = tail call i32 @pthread_mutex_lock(ptr noundef nonnull @g_context_lock) #8
  %.not12 = icmp eq i32 %5, 0
  br i1 %.not12, label %.preheader, label %8

.preheader:                                       ; preds = %4
  %6 = load i32, ptr @g_context_num, align 4
  %7 = icmp sgt i32 %6, 0
  br i1 %7, label %.lr.ph.preheader, label %._crit_edge

.lr.ph.preheader:                                 ; preds = %.preheader
  %.pre17 = load ptr, ptr @g_context, align 8
  br label %.lr.ph

8:                                                ; preds = %4
  %9 = tail call ptr @__errno_location() #9
  store i32 %5, ptr %9, align 4
  tail call void (ptr, ...) @fatal_abort(ptr noundef nonnull @.str.1, ptr noundef nonnull @__func__.acct_gather_energy_g_conf_options) #10
  unreachable

._crit_edge:                                      ; preds = %19, %.preheader
  %10 = tail call i32 @pthread_mutex_unlock(ptr noundef nonnull @g_context_lock) #8
  %.not13 = icmp eq i32 %10, 0
  br i1 %.not13, label %26, label %24

.lr.ph:                                           ; preds = %.lr.ph.preheader, %19
  %11 = phi i32 [ %6, %.lr.ph.preheader ], [ %20, %19 ]
  %12 = phi ptr [ %.pre17, %.lr.ph.preheader ], [ %21, %19 ]
  %indvars.iv = phi i64 [ 0, %.lr.ph.preheader ], [ %indvars.iv.next, %19 ]
  %13 = getelementptr inbounds nuw ptr, ptr %12, i64 %indvars.iv
  %14 = load ptr, ptr %13, align 8
  %.not14 = icmp eq ptr %14, null
  br i1 %.not14, label %19, label %15

15:                                               ; preds = %.lr.ph
  %16 = load ptr, ptr @ops, align 8
  %17 = getelementptr inbounds nuw %struct.slurm_acct_gather_energy_ops, ptr %16, i64 %indvars.iv, i32 3
  %18 = load ptr, ptr %17, align 8
  tail call void %18(ptr noundef %0, ptr noundef %1) #8
  %.pre = load ptr, ptr @g_context, align 8
  %.pre18 = load i32, ptr @g_context_num, align 4
  br label %19

19:                                               ; preds = %.lr.ph, %15
  %20 = phi i32 [ %11, %.lr.ph ], [ %.pre18, %15 ]
  %21 = phi ptr [ %12, %.lr.ph ], [ %.pre, %15 ]
  %indvars.iv.next = add nuw nsw i64 %indvars.iv, 1
  %22 = sext i32 %20 to i64
  %23 = icmp slt i64 %indvars.iv.next, %22
  br i1 %23, label %.lr.ph, label %._crit_edge, !llvm.loop !17

24:                                               ; preds = %._crit_edge
  %25 = tail call ptr @__errno_location() #9
  store i32 %10, ptr %25, align 4
  tail call void (ptr, ...) @fatal_abort(ptr noundef nonnull @.str.7, ptr noundef nonnull @__func__.acct_gather_energy_g_conf_options) #10
  unreachable

26:                                               ; preds = %._crit_edge, %2
  ret i32 0
}